(dp0
S'thumbnailUrl'
p1
(lp2
S'https://i.ytimg.com/vi/0Bmhjf0rKe8/0.jpg'
p3
aS'https://i.ytimg.com/vi/Vw4KVoEVcr0/0.jpg'
p4
aS'https://i.ytimg.com/vi/_ZSbC09qgLI/0.jpg'
p5
aS'https://i.ytimg.com/vi/DNeaZz9Vt6Q/0.jpg'
p6
aS'https://i.ytimg.com/vi/YLDbGqJ2KYk/0.jpg'
p7
aS'https://i.ytimg.com/vi/HECa3bAFAYk/0.jpg'
p8
aS'https://i.ytimg.com/vi/7VSR4_tAYvw/0.jpg'
p9
aS'https://i.ytimg.com/vi/7M-jsjLB20Y/0.jpg'
p10
aS'https://i.ytimg.com/vi/0vmoZEaN_-o/0.jpg'
p11
aS'https://i.ytimg.com/vi/L6yzjDXp_og/0.jpg'
p12
aS'https://i.ytimg.com/vi/wNv74rvkAw8/0.jpg'
p13
aS'https://i.ytimg.com/vi/FtX8nswnUKU/0.jpg'
p14
aS'https://i.ytimg.com/vi/vdQj2ohqCBk/0.jpg'
p15
aS'https://i.ytimg.com/vi/z8GHf-aELjY/0.jpg'
p16
aS'https://i.ytimg.com/vi/YZs3EADi2pQ/0.jpg'
p17
aS'https://i.ytimg.com/vi/go43XeW6Wg4/0.jpg'
p18
aS'https://i.ytimg.com/vi/598IdFlOXcQ/0.jpg'
p19
aS'https://i.ytimg.com/vi/Ofge6a3gGis/0.jpg'
p20
aS'https://i.ytimg.com/vi/2CNd6OGdMO8/0.jpg'
p21
aS'https://i.ytimg.com/vi/S5-D0f6nHSQ/0.jpg'
p22
aS'https://i.ytimg.com/vi/nX1YzS_CYIw/0.jpg'
p23
aS'https://i.ytimg.com/vi/CVmGBoPx6Ms/0.jpg'
p24
aS'https://i.ytimg.com/vi/2GWPOPSXGYI/0.jpg'
p25
aS'https://i.ytimg.com/vi/Hm2BdCbZkKY/0.jpg'
p26
aS'https://i.ytimg.com/vi/D36JUfE1oYk/0.jpg'
p27
aS'https://i.ytimg.com/vi/4Z3r9X8OahA/0.jpg'
p28
aS'https://i.ytimg.com/vi/Wpv01Yo1igA/0.jpg'
p29
aS'https://i.ytimg.com/vi/5OvgDatToBU/0.jpg'
p30
aS'https://i.ytimg.com/vi/rUL0M__g1k4/0.jpg'
p31
aS'https://i.ytimg.com/vi/8-1F-CokXNU/0.jpg'
p32
aS'https://i.ytimg.com/vi/eiHXASgRTcA/0.jpg'
p33
aS'https://i.ytimg.com/vi/3FrP7qGHp0c/0.jpg'
p34
aS'https://i.ytimg.com/vi/Q_udqEp_YR4/0.jpg'
p35
aS'https://i.ytimg.com/vi/MxwH9RbQzJ0/0.jpg'
p36
aS'https://i.ytimg.com/vi/uiz80CuDN8Y/0.jpg'
p37
aS'https://i.ytimg.com/vi/fd5S_wpOCNE/0.jpg'
p38
aS'https://i.ytimg.com/vi/gppbrYIcR80/0.jpg'
p39
aS'https://i.ytimg.com/vi/MaknKaCECcQ/0.jpg'
p40
aS'https://i.ytimg.com/vi/9CC_9aFuEkA/0.jpg'
p41
aS'https://i.ytimg.com/vi/CaSpFPrWyxU/0.jpg'
p42
aS'https://i.ytimg.com/vi/19Ha0D-iuVk/0.jpg'
p43
aS'https://i.ytimg.com/vi/yC4eEuURH8c/0.jpg'
p44
aS'https://i.ytimg.com/vi/Uj-WvApw5u4/0.jpg'
p45
aS'https://i.ytimg.com/vi/NtgtMQwr3Ko/0.jpg'
p46
aS'https://i.ytimg.com/vi/wTaXI9LUugc/0.jpg'
p47
aS'https://i.ytimg.com/vi/2mNB_VG_shc/0.jpg'
p48
aS'https://i.ytimg.com/vi/GzgpeLFf4z4/0.jpg'
p49
aS'https://i.ytimg.com/vi/lNpeTCEPrRk/0.jpg'
p50
aS'https://i.ytimg.com/vi/TWwBdY1Yglg/0.jpg'
p51
aS'https://i.ytimg.com/vi/2btR9rAcdzo/0.jpg'
p52
asS'videoUrl'
p53
(lp54
S'https://www.youtube.com/v/0Bmhjf0rKe8?version=3&f=videos&app=youtube_gdata'
p55
aS'https://www.youtube.com/v/Vw4KVoEVcr0?version=3&f=videos&app=youtube_gdata'
p56
aS'https://www.youtube.com/v/_ZSbC09qgLI?version=3&f=videos&app=youtube_gdata'
p57
aS'https://www.youtube.com/v/DNeaZz9Vt6Q?version=3&f=videos&app=youtube_gdata'
p58
aS'https://www.youtube.com/v/YLDbGqJ2KYk?version=3&f=videos&app=youtube_gdata'
p59
aS'https://www.youtube.com/v/HECa3bAFAYk?version=3&f=videos&app=youtube_gdata'
p60
aS'https://www.youtube.com/v/7VSR4_tAYvw?version=3&f=videos&app=youtube_gdata'
p61
aS'https://www.youtube.com/v/7M-jsjLB20Y?version=3&f=videos&app=youtube_gdata'
p62
aS'https://www.youtube.com/v/0vmoZEaN_-o?version=3&f=videos&app=youtube_gdata'
p63
aS'https://www.youtube.com/v/L6yzjDXp_og?version=3&f=videos&app=youtube_gdata'
p64
aS'https://www.youtube.com/v/wNv74rvkAw8?version=3&f=videos&app=youtube_gdata'
p65
aS'https://www.youtube.com/v/FtX8nswnUKU?version=3&f=videos&app=youtube_gdata'
p66
aS'https://www.youtube.com/v/vdQj2ohqCBk?version=3&f=videos&app=youtube_gdata'
p67
aS'https://www.youtube.com/v/z8GHf-aELjY?version=3&f=videos&app=youtube_gdata'
p68
aS'https://www.youtube.com/v/YZs3EADi2pQ?version=3&f=videos&app=youtube_gdata'
p69
aS'https://www.youtube.com/v/go43XeW6Wg4?version=3&f=videos&app=youtube_gdata'
p70
aS'https://www.youtube.com/v/598IdFlOXcQ?version=3&f=videos&app=youtube_gdata'
p71
aS'https://www.youtube.com/v/Ofge6a3gGis?version=3&f=videos&app=youtube_gdata'
p72
aS'https://www.youtube.com/v/2CNd6OGdMO8?version=3&f=videos&app=youtube_gdata'
p73
aS'https://www.youtube.com/v/S5-D0f6nHSQ?version=3&f=videos&app=youtube_gdata'
p74
aS'https://www.youtube.com/v/nX1YzS_CYIw?version=3&f=videos&app=youtube_gdata'
p75
aS'https://www.youtube.com/v/CVmGBoPx6Ms?version=3&f=videos&app=youtube_gdata'
p76
aS'https://www.youtube.com/v/2GWPOPSXGYI?version=3&f=videos&app=youtube_gdata'
p77
aS'https://www.youtube.com/v/Hm2BdCbZkKY?version=3&f=videos&app=youtube_gdata'
p78
aS'https://www.youtube.com/v/D36JUfE1oYk?version=3&f=videos&app=youtube_gdata'
p79
aS'https://www.youtube.com/v/4Z3r9X8OahA?version=3&f=videos&app=youtube_gdata'
p80
aS'https://www.youtube.com/v/Wpv01Yo1igA?version=3&f=videos&app=youtube_gdata'
p81
aS'https://www.youtube.com/v/5OvgDatToBU?version=3&f=videos&app=youtube_gdata'
p82
aS'https://www.youtube.com/v/rUL0M__g1k4?version=3&f=videos&app=youtube_gdata'
p83
aS'https://www.youtube.com/v/8-1F-CokXNU?version=3&f=videos&app=youtube_gdata'
p84
aS'https://www.youtube.com/v/eiHXASgRTcA?version=3&f=videos&app=youtube_gdata'
p85
aS'https://www.youtube.com/v/3FrP7qGHp0c?version=3&f=videos&app=youtube_gdata'
p86
aS'https://www.youtube.com/v/Q_udqEp_YR4?version=3&f=videos&app=youtube_gdata'
p87
aS'https://www.youtube.com/v/MxwH9RbQzJ0?version=3&f=videos&app=youtube_gdata'
p88
aS'https://www.youtube.com/v/uiz80CuDN8Y?version=3&f=videos&app=youtube_gdata'
p89
aS'https://www.youtube.com/v/fd5S_wpOCNE?version=3&f=videos&app=youtube_gdata'
p90
aS'https://www.youtube.com/v/gppbrYIcR80?version=3&f=videos&app=youtube_gdata'
p91
aS'https://www.youtube.com/v/MaknKaCECcQ?version=3&f=videos&app=youtube_gdata'
p92
aS'https://www.youtube.com/v/9CC_9aFuEkA?version=3&f=videos&app=youtube_gdata'
p93
aS'https://www.youtube.com/v/CaSpFPrWyxU?version=3&f=videos&app=youtube_gdata'
p94
aS'https://www.youtube.com/v/19Ha0D-iuVk?version=3&f=videos&app=youtube_gdata'
p95
aS'https://www.youtube.com/v/yC4eEuURH8c?version=3&f=videos&app=youtube_gdata'
p96
aS'https://www.youtube.com/v/Uj-WvApw5u4?version=3&f=videos&app=youtube_gdata'
p97
aS'https://www.youtube.com/v/NtgtMQwr3Ko?version=3&f=videos&app=youtube_gdata'
p98
aS'https://www.youtube.com/v/wTaXI9LUugc?version=3&f=videos&app=youtube_gdata'
p99
aS'https://www.youtube.com/v/2mNB_VG_shc?version=3&f=videos&app=youtube_gdata'
p100
aS'https://www.youtube.com/v/GzgpeLFf4z4?version=3&f=videos&app=youtube_gdata'
p101
aS'https://www.youtube.com/v/lNpeTCEPrRk?version=3&f=videos&app=youtube_gdata'
p102
aS'https://www.youtube.com/v/TWwBdY1Yglg?version=3&f=videos&app=youtube_gdata'
p103
aS'https://www.youtube.com/v/2btR9rAcdzo?version=3&f=videos&app=youtube_gdata'
p104
asS'description'
p105
(lp106
NaS'thanks to dailypicksandflicks.com for being the first to write about this video and to reddit.com for making it viral. And for all nice comments as well. :) ...'
p107
aS'i am talking cat. kind of you to depress orange button for subscribing. sending my moving picture to your family would be high honor for me. i our very cute ...'
p108
aS'Subscribe our new Channel : https://www.youtube.com/subscription_center?add_user=ChillMaza You really have to give this little kitty some credit for being so...'
p109
aS'Tweet this video! http://clicktotweet.com/ffTFk Become a fan on Facebook! http://www.facebook.com/pages/Kitten-Surprise-How-To-Break-Up-A-Cat-Fight/107431422...'
p110
aS'Like Our FB Page http://www.facebook.com/pages/Full-Time-fun/222373874516533 This super cute kitty will definitely bring a smile to your face. Just look into...'
p111
aS'My new 6 week old Scottish Fold munchkin kitten, that we actually named Munchkin, but we usually call her Munchie. For some more vids of Munchie check out my...'
p112
aS'SUBSCRIBE HERE! http://bit.ly/InternetLoveCats\xe2\x97\x85\xe2\x97\x85\xe2\x97\x85 \xe2\x80\xa2 FACEBOOK: http://www.facebook.com/N3OS3R \xe2\x80\xa2 TWITTER: http://Twitter.com/N3OS3R \xe2\x80\xa2 WEBSITE: http://www.N3...'
p113
aS'http://bit.ly/ZjBAV3 http://tinyurl.com/onjwkkm Cute 4 month old kitten named Flanigan attacks a watermelon. The watermelon had scratches and bite marks all ...'
p114
aS'Download here: http://amzn.to/X7wWqp Kittens singing and dancing to the "Joy, Joy, Joy" song. Take a break and sing along!'
p115
aS'Our kittens are 2 month old. These adorable Persian kittens just learned how to eat on their own, but they are still bothering their mother for milk. These k...'
p116
aS'http://www.facebook.com/pages/Kittens-Inspired-by-Kittens/49930012799.'
p117
aS"Update: I had to swap the audio around because i don't have permission to use sister jack. Music: Arabesque No. 2 by Debussy ."
p118
aS'Copper who is a Cream Tabby Persian seemed to do the kitten dance or maybe it was the Kitten Strut. He was playing cutesy and performing for me. Sorry the vi...'
p119
aS'TV broadcast "Paw on the Heart" - (c) 2011-2012 Producer: Summerstudio Ltd. (Latvia) TV show website: http://kepauzsirds.lv Rosenso Marcoms: http://rosenso.c...'
p120
aS'Tom Tom gets in hamster ball while brother Monkney watches him having a ball.'
p121
aS'Music: Represent Bear Fox 1491s http://www.youtube.com/watch?v=68gPWdaZGbE.'
p122
aS'My cat named Giizmo wuz a little kitten and luved 2 play.'
p123
aS'Kitten tries to get some sleep, while the others play.'
p124
aS'pets animals cats kittens fun.'
p125
aS'Read the title. Visit http://www.aaronrift.com/cats for more! And yes, it is the same two cats over a six-month period.'
p126
aS'Little Hardy! Katzenbaby tr\xc3\xa4umt, dreaming kitten cute, unbelievable! Born in Febuary. BKH= Britisch Kurzhaar. Attention!! My new clip and the same cute star!...'
p127
aS'Thx for 12 Million Views!!! Subscribe, Like & Share For Her! Baltazar, America\'s Cutest "Sweet Tired Cat" Is Falling Into Sleep [-.-]Zzz The Cutest, Fluffies...'
p128
aS'Create your own: http://www.animatephotos.com Become a fan on Facebook at: http://www.facebook.com/pages/Morpheus-Friend-Morpher/53843985739?ref=mf Get the M...'
p129
aS"Open for all of the FAQ's and details! Our hedgehog Harley plays with our FRIEND'S (not ours!) kitten Loki. Make sure to share this video on facebook/twitter..."
p130
aS'Tweet: http://bit.ly/JediKittensStrikeBack The Jedi Kittens are striking back with with an action packed adventure. Who can resist the X-Wing and Tie Fightin...'
p131
aS'If I meow she comes to me and wants attention.... such a sweet little cat!'
p132
aS"READ the full description please. Shyloh the kitten's mom was close by. She was sitting on the floor. This little guy is smart and clever so even though he w..."
p133
aS'A little compilation of very funny cat videos. Like, subscribe & share if you want to follow me.'
p134
aS'http://cremusa.ucoz.ru/ - owner of this kitty http://www.youtube.com/watch?v=_MqHN-4okZ4 - kitten vs a (one) scary thing.'
p135
aS'7 week old fostered kittens waiting on their dinner being prepared. They had been ill with cat flu and were just starting to get their appetite back. Because...'
p136
aS'Dollizzyous Toetje en Dollizzyous Minoes giving hugs to my boyfriend... NO CATNIP! This kitten now 3 years old, still hugging and not only my boyfriend! More...'
p137
aS"If you like animals help support my new game Little Bird Game for the iPhone, iPod touch, and iPad! It's a fun game for kids and adults: iPhone/iPod: http://..."
p138
aS'My dog Murkin loves his kittens! Super cuteness overload! Filmed with a nikon D3100*. For more videos, check out our youtube channel, or find Murkin on Faceb...'
p139
aS'Kitten is very tired. To use this video in a commercial player, advertising or in broadcasts, please email Viral Spiral contact@viralspiralgroup.com.'
p140
aS'Check our our NEW TALKING cat video!!! Link: Check out our NEW TALKING CAT VIDEO!!! LINK: https://www.youtube.com/watch?v=X7e6ByKdWBQ so cute if anyone wants...'
p141
aS"Kittens that are living in my old playhouse are learning how to go down the slide. Momma Dove isn't happy about it. Added notes: The cat gave birth up there,..."
p142
aS'This stray cat has been hanging around for the past few months. It was at my back door crying all day. I now know why. KITTENS! I made a box for them and the...'
p143
aS"charlie and spike were two kittens with myotonia congenita, otherwise known as 'fainting goat' syndrome. at the slightest\xef\xbb\xbf sound or movement, the kittens res..."
p144
aS"To see how Sparta's kids growing up, go to: http://www.youtube.com/watch?v=P_v4dsUsZYA Lots of people's asking : Whos the daddy ? Who want to see the daddy g..."
p145
aS'in the tub.'
p146
aS'I found this kitten on a street in Goa, India and I got her to my Hotel and this was the first time we were feeding her. After 5 months a nice family adopted...'
p147
aS'30 Best lolcats EVER: http://bit.ly/BestLOLcats GET THE CUTE FURRY KITTENS SONG: http://smo.sh/VbTO8K NEW SMOSH CLOTHING: http://bit.ly/NEWmerchYAY Our offic...'
p148
aS"Tweet! http://bit.ly/JediKitten http://www.facebook.com/thefinalcutking Don't be fooled by their cuteness because they are really some crazy Jedi Kittens! I ..."
p149
aS'Download "Wildstyle" by Savant for free: https://soundcloud.com/aleksander-vinter Like Savant on Facebook: http://fb.com/savantdubstep Check out our Facebook...'
p150
aS"OMG! Is Scout Jr. OK?!? What is Speedo's PROBLEM!?! Why does that WOMAN have such hairy ARMS?!?? Did anyone DIE!!?? I can answer all these questions and more..."
p151
aS'WATCH AND LIKE MY NEW CHRISTMAS VIDEO!!!! http://www.youtube.com/watch?v=w6VpjvrW5a8 Kitten is having night mare. Cat comforts it. This is sickeningly adorable!'
p152
aS'Oskar is now on Facebook: www.facebook.com/BlindOskar Check out the web shop too: www.oskarandklaus.com Some of you asked for more Oskar videos, so here we g...'
p153
aS'Original! This is some cute footage from when Tink was a kitten :) He loved to play with his remote control mouse toy. Voting is now closed for "Kitty Whack-...'
p154
aS'This cheetah kitten named Nala was in Namibia Africa when I was visiting some friends of mine this past summer. Her mother was killed by a car, so my friends...'
p155
asS'title'
p156
(lp157
S'Surprised Kitty (Original)'
p158
aS'Cat mom hugs baby kitten'
p159
aS'i are cute kitten'
p160
aS'Brave Kitten Stands Up to Dog'
p161
aS'Kitten Surprise! (How to Break Up a Cat Fight!) THE ORIGINAL!'
p162
aS'Fluffy Kitten Is Confused'
p163
aS'Scottish Fold munchkin'
p164
aS'Small Cute Kitten'
p165
aS'Kitten vs. Watermelon'
p166
aS'Kitties Singing Joy-Joy-Joy!'
p167
aS'Kittens at Lunch !!!'
p168
aS'kittens inspired by kittens'
p169
aS'Kitten and his box.'
p170
aS'Kitten Dance...?'
p171
aS'Cute munchkin baby kitten talks too much'
p172
aS'KITTEN in Hamster Ball stuck in the middle'
p173
aS'Kitten Massage Therapy'
p174
aS'The funniest kitten in the world'
p175
aS'Little Kitten So Tired. Cutest vid ever!!!'
p176
aS'mama cat comes to rescue her little kitten'
p177
aS'Kittens And Cats Meowing'
p178
aS'Cute dreaming kitty (Original!!)'
p179
aS'Sweet Tired Cat [-.-]Zzz - Fluffy Persian Kitten -'
p180
aS'Kitty said what? - Morphing Kittens'
p181
aS'KITTEN MEETS HEDGEHOG'
p182
aS'Jedi Kittens Strike Back'
p183
aS'Kitten talk'
p184
aS'Baby Kitten and his funny meows'
p185
aS'Epic cat videos! Cute, funny and scary kitten all in one!'
p186
aS'kitten vs TWO scary things (\xd0\xba\xd0\xbe\xd1\x82\xd0\xb5\xd0\xbd\xd0\xbe\xd0\xba \xd0\xbf\xd1\x80\xd0\xbe\xd1\x82\xd0\xb8\xd0\xb2 \xd0\x94\xd0\x92\xd0\xa3\xd0\xa5  \xd0\xbd\xd0\xb5\xd0\xb2\xd0\xb5\xd0\xb4\xd0\xbe\xd0\xbc\xd1\x8b\xd1\x85 \xd1\x85\xd1\x80\xd0\xb5\xd0\xbd\xd0\xb5\xd0\xb9)'
p187
aS'Noisy kittens waiting for dinner!'
p188
aS'Ragdoll kitten give big hugs to my boyfriend (8 weeks old). (Part 1)'
p189
aS'Whack-A-Kitty'
p190
aS'Video 34: CUTENESS OVERLOAD!! A dog sleeping with his KITTENS'
p191
aS'Kitten suddenly falls asleep'
p192
aS'bengal cat talking to her kitten - ORIGINAL'
p193
aS'Kittens on a Slide'
p194
aS'Kittens being born'
p195
aS'fainting goat kittens - original video'
p196
aS'Sparta giving birth to 6 kittens'
p197
aS"Sphynx kitten's  bath time"
p198
aS'Hungry Kitten'
p199
aS'CUTE FURRY KITTENS (Official Music Video)'
p200
aS'Jedi Kittens'
p201
aS'Kittens On The Beat'
p202
aS'Kitten Wearing a Tiny Hat - Audition Outtakes'
p203
aS'Cat Hugs Baby Kitten Having Nightmare'
p204
aS'Oskar the Blind Kitten and His First Toys'
p205
aS'Kitten afraid of remote control mouse'
p206
aS'Cute Baby Cheetah Kitten Mewing'
p207
as.