(lp0
ccopy_reg
_reconstructor
p1
(cgdata.media
Thumbnail
p2
c__builtin__
object
p3
Ntp4
Rp5
(dp6
S'extension_attributes'
p7
(dp8
S'time'
p9
S'00:01:48.500'
p10
ssS'url'
p11
S'https://i.ytimg.com/vi/QH2-TGUlwu4/0.jpg'
p12
sS'text'
p13
NsS'height'
p14
S'360'
p15
sS'width'
p16
S'480'
p17
sS'extension_elements'
p18
(lp19
sS'name'
p20
Nsbag1
(g2
g3
Ntp21
Rp22
(dp23
g7
(dp24
g9
S'00:00:54.250'
p25
ssg11
S'https://i.ytimg.com/vi/QH2-TGUlwu4/1.jpg'
p26
sg13
Nsg14
S'90'
p27
sg16
S'120'
p28
sg18
(lp29
sg20
Nsbag1
(g2
g3
Ntp30
Rp31
(dp32
g7
(dp33
g9
S'00:01:48.500'
p34
ssg11
S'https://i.ytimg.com/vi/QH2-TGUlwu4/2.jpg'
p35
sg13
Nsg14
S'90'
p36
sg16
S'120'
p37
sg18
(lp38
sg20
Nsbag1
(g2
g3
Ntp39
Rp40
(dp41
g7
(dp42
g9
S'00:02:42.750'
p43
ssg11
S'https://i.ytimg.com/vi/QH2-TGUlwu4/3.jpg'
p44
sg13
Nsg14
S'90'
p45
sg16
S'120'
p46
sg18
(lp47
sg20
Nsba.